target datalayout = "e-m:e-p270:32:32-p271:32:32-p272:64:64-i64:64-i128:128-f80:128-n8:16:32:64-S128"
target triple = "x86_64-pc-linux-gnu"

%struct.script_error_callback_arg = type { ptr, ptr, i32, i32 }

@.str.103 = private unnamed_addr constant [21 x i8] c"SQL statement \22%.*s\22\00", align 1
@.str.104 = private unnamed_addr constant [41 x i8] c"extension script file \22%s\22, near line %d\00", align 1
@.str.105 = private unnamed_addr constant [27 x i8] c"extension script file \22%s\22\00", align 1

; Function Attrs: nounwind uwtable
define internal void @script_error_callback(ptr noundef %0) #0 {
  %2 = alloca ptr, align 8
  %3 = alloca ptr, align 8
  %4 = alloca ptr, align 8
  %5 = alloca i32, align 4
  %6 = alloca i32, align 4
  %7 = alloca i32, align 4
  %8 = alloca ptr, align 8
  %9 = alloca i32, align 4
  %10 = alloca i32, align 4
  %11 = alloca i32, align 4
  %12 = alloca i32, align 4
  %13 = alloca i32, align 4
  store ptr %0, ptr %2, align 8
  call void @llvm.lifetime.start.p0(i64 8, ptr %3) #12
  %14 = load ptr, ptr %2, align 8
  store ptr %14, ptr %3, align 8
  call void @llvm.lifetime.start.p0(i64 8, ptr %4) #12
  %15 = load ptr, ptr %3, align 8
  %16 = getelementptr inbounds nuw %struct.script_error_callback_arg, ptr %15, i32 0, i32 0
  %17 = load ptr, ptr %16, align 8
  store ptr %17, ptr %4, align 8
  call void @llvm.lifetime.start.p0(i64 4, ptr %5) #12
  %18 = load ptr, ptr %3, align 8
  %19 = getelementptr inbounds nuw %struct.script_error_callback_arg, ptr %18, i32 0, i32 2
  %20 = load i32, ptr %19, align 8
  store i32 %20, ptr %5, align 4
  call void @llvm.lifetime.start.p0(i64 4, ptr %6) #12
  %21 = load ptr, ptr %3, align 8
  %22 = getelementptr inbounds nuw %struct.script_error_callback_arg, ptr %21, i32 0, i32 3
  %23 = load i32, ptr %22, align 4
  store i32 %23, ptr %6, align 4
  call void @llvm.lifetime.start.p0(i64 4, ptr %7) #12
  call void @llvm.lifetime.start.p0(i64 8, ptr %8) #12
  %24 = call i32 @geterrposition()
  store i32 %24, ptr %7, align 4
  %25 = load i32, ptr %7, align 4
  %26 = icmp sgt i32 %25, 0
  br i1 %26, label %27, label %134

27:                                               ; preds = %1
  %28 = load i32, ptr %5, align 4
  %29 = icmp slt i32 %28, 0
  br i1 %29, label %43, label %30

30:                                               ; preds = %27
  %31 = load i32, ptr %7, align 4
  %32 = load i32, ptr %5, align 4
  %33 = icmp slt i32 %31, %32
  br i1 %33, label %43, label %34

34:                                               ; preds = %30
  %35 = load i32, ptr %6, align 4
  %36 = icmp sgt i32 %35, 0
  br i1 %36, label %37, label %109

37:                                               ; preds = %34
  %38 = load i32, ptr %7, align 4
  %39 = load i32, ptr %5, align 4
  %40 = load i32, ptr %6, align 4
  %41 = add i32 %39, %40
  %42 = icmp sgt i32 %38, %41
  br i1 %42, label %43, label %109

43:                                               ; preds = %37, %30, %27
  call void @llvm.lifetime.start.p0(i64 4, ptr %9) #12
  %44 = load ptr, ptr %4, align 8
  %45 = call i64 @strlen(ptr noundef %44) #14
  %46 = trunc i64 %45 to i32
  store i32 %46, ptr %9, align 4
  store i32 0, ptr %6, align 4
  store i32 0, ptr %5, align 4
  call void @llvm.lifetime.start.p0(i64 4, ptr %10) #12
  store i32 0, ptr %10, align 4
  br label %47

47:                                               ; preds = %104, %43
  %48 = load i32, ptr %10, align 4
  %49 = load i32, ptr %9, align 4
  %50 = icmp slt i32 %48, %49
  br i1 %50, label %52, label %51

51:                                               ; preds = %47
  store i32 2, ptr %11, align 4
  br label %107

52:                                               ; preds = %47
  %53 = load ptr, ptr %4, align 8
  %54 = load i32, ptr %10, align 4
  %55 = sext i32 %54 to i64
  %56 = getelementptr inbounds i8, ptr %53, i64 %55
  %57 = load i8, ptr %56, align 1
  %58 = sext i8 %57 to i32
  %59 = icmp ne i32 %58, 59
  br i1 %59, label %60, label %61

60:                                               ; preds = %52
  br label %104

61:                                               ; preds = %52
  %62 = load ptr, ptr %4, align 8
  %63 = load i32, ptr %10, align 4
  %64 = add i32 %63, 1
  %65 = sext i32 %64 to i64
  %66 = getelementptr inbounds i8, ptr %62, i64 %65
  %67 = load i8, ptr %66, align 1
  %68 = sext i8 %67 to i32
  %69 = icmp eq i32 %68, 13
  br i1 %69, label %70, label %73

70:                                               ; preds = %61
  %71 = load i32, ptr %10, align 4
  %72 = add i32 %71, 1
  store i32 %72, ptr %10, align 4
  br label %73

73:                                               ; preds = %70, %61
  %74 = load ptr, ptr %4, align 8
  %75 = load i32, ptr %10, align 4
  %76 = add i32 %75, 1
  %77 = sext i32 %76 to i64
  %78 = getelementptr inbounds i8, ptr %74, i64 %77
  %79 = load i8, ptr %78, align 1
  %80 = sext i8 %79 to i32
  %81 = icmp eq i32 %80, 10
  br i1 %81, label %82, label %103

82:                                               ; preds = %73
  call void @llvm.lifetime.start.p0(i64 4, ptr %12) #12
  %83 = load i32, ptr %10, align 4
  %84 = add i32 %83, 2
  store i32 %84, ptr %12, align 4
  %85 = load i32, ptr %12, align 4
  %86 = load i32, ptr %7, align 4
  %87 = icmp slt i32 %85, %86
  br i1 %87, label %88, label %90

88:                                               ; preds = %82
  %89 = load i32, ptr %12, align 4
  store i32 %89, ptr %5, align 4
  br label %99

90:                                               ; preds = %82
  %91 = load i32, ptr %12, align 4
  %92 = load i32, ptr %7, align 4
  %93 = icmp sgt i32 %91, %92
  br i1 %93, label %94, label %98

94:                                               ; preds = %90
  %95 = load i32, ptr %12, align 4
  %96 = load i32, ptr %5, align 4
  %97 = sub i32 %95, %96
  store i32 %97, ptr %6, align 4
  store i32 2, ptr %11, align 4
  br label %100

98:                                               ; preds = %90
  br label %99

99:                                               ; preds = %98, %88
  store i32 0, ptr %11, align 4
  br label %100

100:                                              ; preds = %99, %94
  call void @llvm.lifetime.end.p0(i64 4, ptr %12) #12
  %101 = load i32, ptr %11, align 4
  switch i32 %101, label %107 [
    i32 0, label %102
  ]

102:                                              ; preds = %100
  br label %103

103:                                              ; preds = %102, %73
  br label %104

104:                                              ; preds = %103, %60
  %105 = load i32, ptr %10, align 4
  %106 = add i32 %105, 1
  store i32 %106, ptr %10, align 4
  br label %47, !llvm.loop !38

107:                                              ; preds = %100, %51
  call void @llvm.lifetime.end.p0(i64 4, ptr %10) #12
  br label %108

108:                                              ; preds = %107
  call void @llvm.lifetime.end.p0(i64 4, ptr %9) #12
  br label %109

109:                                              ; preds = %108, %37, %34
  %110 = load ptr, ptr %4, align 8
  %111 = call ptr @CleanQuerytext(ptr noundef %110, ptr noundef %5, ptr noundef %6)
  store ptr %111, ptr %4, align 8
  %112 = load i32, ptr %5, align 4
  %113 = load i32, ptr %7, align 4
  %114 = sub i32 %113, %112
  store i32 %114, ptr %7, align 4
  %115 = load i32, ptr %7, align 4
  %116 = icmp slt i32 %115, 0
  br i1 %116, label %117, label %118

117:                                              ; preds = %109
  store i32 0, ptr %7, align 4
  br label %125

118:                                              ; preds = %109
  %119 = load i32, ptr %7, align 4
  %120 = load i32, ptr %6, align 4
  %121 = icmp sgt i32 %119, %120
  br i1 %121, label %122, label %124

122:                                              ; preds = %118
  %123 = load i32, ptr %6, align 4
  store i32 %123, ptr %7, align 4
  br label %124

124:                                              ; preds = %122, %118
  br label %125

125:                                              ; preds = %124, %117
  %126 = call i32 @errposition(i32 noundef 0)
  %127 = load i32, ptr %7, align 4
  %128 = call i32 @internalerrposition(i32 noundef %127)
  %129 = load ptr, ptr %4, align 8
  %130 = load i32, ptr %6, align 4
  %131 = sext i32 %130 to i64
  %132 = call ptr @pnstrdup(ptr noundef %129, i64 noundef %131)
  %133 = call i32 @internalerrquery(ptr noundef %132)
  br label %145

134:                                              ; preds = %1
  %135 = load i32, ptr %5, align 4
  %136 = icmp sge i32 %135, 0
  br i1 %136, label %137, label %144

137:                                              ; preds = %134
  %138 = load ptr, ptr %4, align 8
  %139 = call ptr @CleanQuerytext(ptr noundef %138, ptr noundef %5, ptr noundef %6)
  store ptr %139, ptr %4, align 8
  %140 = call i32 @set_errcontext_domain(ptr noundef null)
  %141 = load i32, ptr %6, align 4
  %142 = load ptr, ptr %4, align 8
  %143 = call i32 (ptr, ...) @errcontext_msg(ptr noundef @.str.103, i32 noundef %141, ptr noundef %142)
  br label %144

144:                                              ; preds = %137, %134
  br label %145

145:                                              ; preds = %144, %125
  %146 = load ptr, ptr %3, align 8
  %147 = getelementptr inbounds nuw %struct.script_error_callback_arg, ptr %146, i32 0, i32 1
  %148 = load ptr, ptr %147, align 8
  %149 = call ptr @strrchr(ptr noundef %148, i32 noundef 47) #14
  store ptr %149, ptr %8, align 8
  %150 = load ptr, ptr %8, align 8
  %151 = icmp ne ptr %150, null
  br i1 %151, label %152, label %155

152:                                              ; preds = %145
  %153 = load ptr, ptr %8, align 8
  %154 = getelementptr inbounds nuw i8, ptr %153, i32 1
  store ptr %154, ptr %8, align 8
  br label %159

155:                                              ; preds = %145
  %156 = load ptr, ptr %3, align 8
  %157 = getelementptr inbounds nuw %struct.script_error_callback_arg, ptr %156, i32 0, i32 1
  %158 = load ptr, ptr %157, align 8
  store ptr %158, ptr %8, align 8
  br label %159

159:                                              ; preds = %155, %152
  %160 = load i32, ptr %5, align 4
  %161 = icmp sge i32 %160, 0
  br i1 %161, label %162, label %192

162:                                              ; preds = %159
  call void @llvm.lifetime.start.p0(i64 4, ptr %13) #12
  store i32 1, ptr %13, align 4
  %163 = load ptr, ptr %3, align 8
  %164 = getelementptr inbounds nuw %struct.script_error_callback_arg, ptr %163, i32 0, i32 0
  %165 = load ptr, ptr %164, align 8
  store ptr %165, ptr %4, align 8
  br label %166

166:                                              ; preds = %184, %162
  %167 = load ptr, ptr %4, align 8
  %168 = load i8, ptr %167, align 1
  %169 = icmp ne i8 %168, 0
  br i1 %169, label %170, label %187

170:                                              ; preds = %166
  %171 = load i32, ptr %5, align 4
  %172 = add i32 %171, -1
  store i32 %172, ptr %5, align 4
  %173 = icmp slt i32 %172, 0
  br i1 %173, label %174, label %175

174:                                              ; preds = %170
  br label %187

175:                                              ; preds = %170
  %176 = load ptr, ptr %4, align 8
  %177 = load i8, ptr %176, align 1
  %178 = sext i8 %177 to i32
  %179 = icmp eq i32 %178, 10
  br i1 %179, label %180, label %183

180:                                              ; preds = %175
  %181 = load i32, ptr %13, align 4
  %182 = add i32 %181, 1
  store i32 %182, ptr %13, align 4
  br label %183

183:                                              ; preds = %180, %175
  br label %184

184:                                              ; preds = %183
  %185 = load ptr, ptr %4, align 8
  %186 = getelementptr inbounds nuw i8, ptr %185, i32 1
  store ptr %186, ptr %4, align 8
  br label %166, !llvm.loop !39

187:                                              ; preds = %174, %166
  %188 = call i32 @set_errcontext_domain(ptr noundef null)
  %189 = load ptr, ptr %8, align 8
  %190 = load i32, ptr %13, align 4
  %191 = call i32 (ptr, ...) @errcontext_msg(ptr noundef @.str.104, ptr noundef %189, i32 noundef %190)
  call void @llvm.lifetime.end.p0(i64 4, ptr %13) #12
  br label %196

192:                                              ; preds = %159
  %193 = call i32 @set_errcontext_domain(ptr noundef null)
  %194 = load ptr, ptr %8, align 8
  %195 = call i32 (ptr, ...) @errcontext_msg(ptr noundef @.str.105, ptr noundef %194)
  br label %196

196:                                              ; preds = %192, %187
  call void @llvm.lifetime.end.p0(i64 8, ptr %8) #12
  call void @llvm.lifetime.end.p0(i64 4, ptr %7) #12
  call void @llvm.lifetime.end.p0(i64 4, ptr %6) #12
  call void @llvm.lifetime.end.p0(i64 4, ptr %5) #12
  call void @llvm.lifetime.end.p0(i64 8, ptr %4) #12
  call void @llvm.lifetime.end.p0(i64 8, ptr %3) #12
  ret void
}