; Function Attrs: nounwind uwtable
define internal void @script_error_callback(ptr noundef readonly captures(none) %0) #0 {
  %2 = alloca i32, align 4
  %3 = alloca i32, align 4
  %4 = load ptr, ptr %0, align 8
  call void @llvm.lifetime.start.p0(i64 4, ptr nonnull %2) #15
  %5 = getelementptr inbounds nuw i8, ptr %0, i64 16
  %6 = load i32, ptr %5, align 8
  store i32 %6, ptr %2, align 4
  call void @llvm.lifetime.start.p0(i64 4, ptr nonnull %3) #15
  %7 = getelementptr inbounds nuw i8, ptr %0, i64 20
  %8 = load i32, ptr %7, align 4
  store i32 %8, ptr %3, align 4
  %9 = tail call i32 @geterrposition() #15
  %10 = icmp sgt i32 %9, 0
  br i1 %10, label %11, label %55

11:                                               ; preds = %1
  %or.cond = icmp ugt i32 %6, %9
  br i1 %or.cond, label %16, label %12

12:                                               ; preds = %11
  %13 = icmp sgt i32 %8, 0
  %14 = add nuw i32 %8, %6
  %15 = icmp sgt i32 %9, %14
  %or.cond62 = select i1 %13, i1 %15, i1 false
  br i1 %or.cond62, label %16, label %.loopexit

16:                                               ; preds = %12, %11
  %17 = tail call i64 @strlen(ptr noundef nonnull dereferenceable(1) %4) #17
  %18 = trunc i64 %17 to i32
  store i32 0, ptr %3, align 4
  store i32 0, ptr %2, align 4
  %19 = icmp sgt i32 %18, 0
  br i1 %19, label %.lr.ph, label %.loopexit

.lr.ph:                                           ; preds = %16, %.lr.ph._crit_edge
  %20 = phi i32 [ %42, %.lr.ph._crit_edge ], [ 0, %16 ]
  %.04765 = phi i32 [ %.pre-phi, %.lr.ph._crit_edge ], [ 0, %16 ]
  %21 = sext i32 %.04765 to i64
  %22 = getelementptr inbounds i8, ptr %4, i64 %21
  %23 = load i8, ptr %22, align 1
  %.not = icmp eq i8 %23, 59
  %24 = add nsw i32 %.04765, 1
  br i1 %.not, label %25, label %.lr.ph._crit_edge

25:                                               ; preds = %.lr.ph
  %26 = sext i32 %24 to i64
  %27 = getelementptr inbounds i8, ptr %4, i64 %26
  %28 = load i8, ptr %27, align 1
  %29 = icmp eq i8 %28, 13
  %spec.select = select i1 %29, i32 %24, i32 %.04765
  %30 = add i32 %spec.select, 1
  %31 = sext i32 %30 to i64
  %32 = getelementptr inbounds i8, ptr %4, i64 %31
  %33 = load i8, ptr %32, align 1
  %34 = icmp eq i8 %33, 10
  br i1 %34, label %35, label %.lr.ph._crit_edge

35:                                               ; preds = %25
  %36 = add i32 %spec.select, 2
  %37 = icmp slt i32 %36, %9
  br i1 %37, label %38, label %39

38:                                               ; preds = %35
  store i32 %36, ptr %2, align 4
  br label %.lr.ph._crit_edge

39:                                               ; preds = %35
  %40 = icmp sgt i32 %36, %9
  br i1 %40, label %.critedge, label %.lr.ph._crit_edge

.critedge:                                        ; preds = %39
  %41 = sub i32 %36, %20
  store i32 %41, ptr %3, align 4
  br label %.loopexit

.lr.ph._crit_edge:                                ; preds = %.lr.ph, %39, %38, %25
  %.pre-phi = phi i32 [ %30, %39 ], [ %30, %38 ], [ %30, %25 ], [ %24, %.lr.ph ]
  %42 = phi i32 [ %20, %39 ], [ %36, %38 ], [ %20, %25 ], [ %20, %.lr.ph ]
  %43 = icmp slt i32 %.pre-phi, %18
  br i1 %43, label %.lr.ph, label %.loopexit, !llvm.loop !23

.loopexit:                                        ; preds = %.lr.ph._crit_edge, %16, %.critedge, %12
  %44 = call ptr @CleanQuerytext(ptr noundef %4, ptr noundef nonnull %2, ptr noundef nonnull %3) #15
  %45 = load i32, ptr %2, align 4
  %46 = sub i32 %9, %45
  %47 = icmp slt i32 %46, 0
  %48 = load i32, ptr %3, align 4
  %spec.select63 = call i32 @llvm.smin.i32(i32 %46, i32 %48)
  %.049 = select i1 %47, i32 0, i32 %spec.select63
  %49 = call i32 @errposition(i32 noundef 0) #15
  %50 = call i32 @internalerrposition(i32 noundef %.049) #15
  %51 = load i32, ptr %3, align 4
  %52 = sext i32 %51 to i64
  %53 = call ptr @pnstrdup(ptr noundef %44, i64 noundef %52) #15
  %54 = call i32 @internalerrquery(ptr noundef %53) #15
  br label %thread-pre-split

55:                                               ; preds = %1
  %56 = icmp sgt i32 %6, -1
  br i1 %56, label %57, label %63

57:                                               ; preds = %55
  %58 = call ptr @CleanQuerytext(ptr noundef %4, ptr noundef nonnull %2, ptr noundef nonnull %3) #15
  %59 = call i32 @set_errcontext_domain(ptr noundef null) #15
  %60 = load i32, ptr %3, align 4
  %61 = call i32 (ptr, ...) @errcontext_msg(ptr noundef nonnull @.str.103, i32 noundef %60, ptr noundef %58) #15
  br label %thread-pre-split

thread-pre-split:                                 ; preds = %.loopexit, %57
  %.pr = load i32, ptr %2, align 4
  %62 = icmp sgt i32 %.pr, -1
  br label %63

63:                                               ; preds = %thread-pre-split, %55
  %.promoted = phi i32 [ %.pr, %thread-pre-split ], [ %6, %55 ]
  %64 = phi i1 [ %62, %thread-pre-split ], [ false, %55 ]
  %65 = getelementptr inbounds nuw i8, ptr %0, i64 8
  %66 = load ptr, ptr %65, align 8
  %67 = call ptr @strrchr(ptr noundef nonnull dereferenceable(1) %66, i32 noundef 47) #17
  %.not59 = icmp eq ptr %67, null
  %68 = getelementptr inbounds nuw i8, ptr %67, i64 1
  %.050 = select i1 %.not59, ptr %66, ptr %68
  br i1 %64, label %69, label %83

69:                                               ; preds = %63
  %70 = load ptr, ptr %0, align 8
  %71 = load i8, ptr %70, align 1
  %.not6066 = icmp eq i8 %71, 0
  br i1 %.not6066, label %._crit_edge, label %.lr.ph69

.lr.ph69:                                         ; preds = %69, %75
  %.068 = phi i32 [ %spec.select64, %75 ], [ 1, %69 ]
  %.04567 = phi ptr [ %79, %75 ], [ %70, %69 ]
  %72 = phi i32 [ %73, %75 ], [ %.promoted, %69 ]
  %73 = add i32 %72, -1
  store i32 %73, ptr %2, align 4
  %74 = icmp slt i32 %73, 0
  br i1 %74, label %._crit_edge, label %75

75:                                               ; preds = %.lr.ph69
  %76 = load i8, ptr %.04567, align 1
  %77 = icmp eq i8 %76, 10
  %78 = zext i1 %77 to i32
  %spec.select64 = add i32 %.068, %78
  %79 = getelementptr inbounds nuw i8, ptr %.04567, i64 1
  %80 = load i8, ptr %79, align 1
  %.not60 = icmp eq i8 %80, 0
  br i1 %.not60, label %._crit_edge, label %.lr.ph69, !llvm.loop !24

._crit_edge:                                      ; preds = %75, %.lr.ph69, %69
  %.0.lcssa = phi i32 [ 1, %69 ], [ %.068, %.lr.ph69 ], [ %spec.select64, %75 ]
  %81 = call i32 @set_errcontext_domain(ptr noundef null) #15
  %82 = call i32 (ptr, ...) @errcontext_msg(ptr noundef nonnull @.str.104, ptr noundef nonnull %.050, i32 noundef %.0.lcssa) #15
  br label %86

83:                                               ; preds = %63
  %84 = call i32 @set_errcontext_domain(ptr noundef null) #15
  %85 = call i32 (ptr, ...) @errcontext_msg(ptr noundef nonnull @.str.105, ptr noundef nonnull %.050) #15
  br label %86

86:                                               ; preds = %83, %._crit_edge
  call void @llvm.lifetime.end.p0(i64 4, ptr nonnull %3) #15
  call void @llvm.lifetime.end.p0(i64 4, ptr nonnull %2) #15
  ret void
}